; Function Attrs: nounwind uwtable
define internal noundef i32 @lj_cf_buffer_method_free(ptr noundef %0) #0 {
  %2 = getelementptr inbounds nuw i8, ptr %0, i64 32
  %3 = load ptr, ptr %2, align 8, !tbaa !4
  %4 = getelementptr inbounds nuw i8, ptr %0, i64 40
  %5 = load ptr, ptr %4, align 8, !tbaa !14
  %6 = icmp ult ptr %3, %5
  br i1 %6, label %7, label %16

7:                                                ; preds = %1
  %8 = load i64, ptr %3, align 8, !tbaa !15
  %.mask.i = and i64 %8, -140737488355328
  %9 = icmp eq i64 %.mask.i, -1829587348619264
  br i1 %9, label %10, label %16

10:                                               ; preds = %7
  %11 = and i64 %8, 140737488355327
  %12 = inttoptr i64 %11 to ptr
  %13 = getelementptr inbounds nuw i8, ptr %12, i64 10
  %14 = load i8, ptr %13, align 2, !tbaa !15
  %15 = icmp eq i8 %14, 3
  br i1 %15, label %buffer_tobuf.exit, label %16

16:                                               ; preds = %10, %7, %1
  tail call void @lj_err_argtype(ptr noundef nonnull %0, i32 noundef 1, ptr noundef nonnull @.str.2) #7
  unreachable

buffer_tobuf.exit:                                ; preds = %10
  %17 = getelementptr inbounds nuw i8, ptr %12, i64 72
  %18 = load i64, ptr %17, align 8, !tbaa !16
  %19 = and i64 %18, 6
  %.not.i = icmp eq i64 %19, 0
  br i1 %.not.i, label %20, label %lj_bufx_free.exit

20:                                               ; preds = %buffer_tobuf.exit
  %21 = getelementptr inbounds nuw i8, ptr %0, i64 16
  %22 = load i64, ptr %21, align 8, !tbaa !19
  %23 = inttoptr i64 %22 to ptr
  %24 = getelementptr inbounds nuw i8, ptr %12, i64 64
  %25 = load ptr, ptr %24, align 8, !tbaa !20
  %26 = getelementptr inbounds nuw i8, ptr %12, i64 56
  %27 = load ptr, ptr %26, align 8, !tbaa !21
  %28 = ptrtoint ptr %27 to i64
  %29 = ptrtoint ptr %25 to i64
  %30 = sub i64 %28, %29
  %31 = and i64 %30, 4294967295
  %32 = getelementptr inbounds nuw i8, ptr %23, i64 16
  %33 = load i64, ptr %32, align 8, !tbaa !22
  %34 = sub i64 %33, %31
  store i64 %34, ptr %32, align 8, !tbaa !22
  %35 = load ptr, ptr %23, align 8, !tbaa !32
  %36 = getelementptr inbounds nuw i8, ptr %23, i64 8
  %37 = load ptr, ptr %36, align 8, !tbaa !33
  %38 = tail call ptr %35(ptr noundef %37, ptr noundef %25, i64 noundef range(i64 0, 4294967296) %31, i64 noundef 0) #6
  br label %lj_bufx_free.exit

lj_bufx_free.exit:                                ; preds = %buffer_tobuf.exit, %20
  %39 = getelementptr inbounds nuw i8, ptr %12, i64 48
  %40 = ptrtoint ptr %0 to i64
  %41 = add i64 %40, 1
  store i64 %41, ptr %17, align 8, !tbaa !16
  %42 = getelementptr inbounds nuw i8, ptr %12, i64 80
  tail call void @llvm.memset.p0.i64(ptr noundef nonnull align 8 dereferenceable(24) %39, i8 0, i64 24, i1 false)
  tail call void @llvm.memset.p0.i64(ptr noundef nonnull align 8 dereferenceable(16) %42, i8 0, i64 16, i1 false)
  %43 = load ptr, ptr %2, align 8, !tbaa !4
  %44 = getelementptr inbounds nuw i8, ptr %43, i64 8
  store ptr %44, ptr %4, align 8, !tbaa !14
  ret i32 1
}